target datalayout = "e-m:e-p270:32:32-p271:32:32-p272:64:64-i64:64-i128:128-f80:128-n8:16:32:64-S128"
target triple = "x86_64-pc-linux-gnu"

%struct.FunctionCallInfoBaseData = type { ptr, ptr, ptr, i32, i8, i16, [0 x %struct.NullableDatum] }
%struct.NullableDatum = type { i64, i8 }
%struct.oidvector = type { i32, i32, i32, i32, i32, i32, [0 x i32] }

; Function Attrs: inlinehint nounwind uwtable
define internal i64 @Int32GetDatum(i32 noundef %0) #2 {
  %2 = alloca i32, align 4
  store i32 %0, ptr %2, align 4
  %3 = load i32, ptr %2, align 4
  %4 = sext i32 %3 to i64
  ret i64 %4
}

; Function Attrs: inlinehint nounwind uwtable
define internal ptr @DatumGetPointer(i64 noundef %0) #2 {
  %2 = alloca i64, align 8
  store i64 %0, ptr %2, align 8
  %3 = load i64, ptr %2, align 8
  %4 = inttoptr i64 %3 to ptr
  ret ptr %4
}

; Function Attrs: nounwind uwtable
define dso_local i64 @btoidvectorcmp(ptr noundef %0) #0 {
  %2 = alloca i64, align 8
  %3 = alloca ptr, align 8
  %4 = alloca ptr, align 8
  %5 = alloca ptr, align 8
  %6 = alloca i32, align 4
  %7 = alloca i32, align 4
  store ptr %0, ptr %3, align 8
  call void @llvm.lifetime.start.p0(i64 8, ptr %4) #4
  %8 = load ptr, ptr %3, align 8
  %9 = getelementptr inbounds nuw %struct.FunctionCallInfoBaseData, ptr %8, i32 0, i32 6
  %10 = getelementptr inbounds [0 x %struct.NullableDatum], ptr %9, i64 0, i64 0
  %11 = getelementptr inbounds nuw %struct.NullableDatum, ptr %10, i32 0, i32 0
  %12 = load i64, ptr %11, align 8
  %13 = call ptr @DatumGetPointer(i64 noundef %12)
  store ptr %13, ptr %4, align 8
  call void @llvm.lifetime.start.p0(i64 8, ptr %5) #4
  %14 = load ptr, ptr %3, align 8
  %15 = getelementptr inbounds nuw %struct.FunctionCallInfoBaseData, ptr %14, i32 0, i32 6
  %16 = getelementptr inbounds [0 x %struct.NullableDatum], ptr %15, i64 0, i64 1
  %17 = getelementptr inbounds nuw %struct.NullableDatum, ptr %16, i32 0, i32 0
  %18 = load i64, ptr %17, align 8
  %19 = call ptr @DatumGetPointer(i64 noundef %18)
  store ptr %19, ptr %5, align 8
  call void @llvm.lifetime.start.p0(i64 4, ptr %6) #4
  %20 = load ptr, ptr %4, align 8
  %21 = getelementptr inbounds nuw %struct.oidvector, ptr %20, i32 0, i32 4
  %22 = load i32, ptr %21, align 4
  %23 = load ptr, ptr %5, align 8
  %24 = getelementptr inbounds nuw %struct.oidvector, ptr %23, i32 0, i32 4
  %25 = load i32, ptr %24, align 4
  %26 = icmp ne i32 %22, %25
  br i1 %26, label %27, label %36

27:                                               ; preds = %1
  %28 = load ptr, ptr %4, align 8
  %29 = getelementptr inbounds nuw %struct.oidvector, ptr %28, i32 0, i32 4
  %30 = load i32, ptr %29, align 4
  %31 = load ptr, ptr %5, align 8
  %32 = getelementptr inbounds nuw %struct.oidvector, ptr %31, i32 0, i32 4
  %33 = load i32, ptr %32, align 4
  %34 = sub i32 %30, %33
  %35 = call i64 @Int32GetDatum(i32 noundef %34)
  store i64 %35, ptr %2, align 8
  store i32 1, ptr %7, align 4
  br label %81

36:                                               ; preds = %1
  store i32 0, ptr %6, align 4
  br label %37

37:                                               ; preds = %76, %36
  %38 = load i32, ptr %6, align 4
  %39 = load ptr, ptr %4, align 8
  %40 = getelementptr inbounds nuw %struct.oidvector, ptr %39, i32 0, i32 4
  %41 = load i32, ptr %40, align 4
  %42 = icmp slt i32 %38, %41
  br i1 %42, label %43, label %79

43:                                               ; preds = %37
  %44 = load ptr, ptr %4, align 8
  %45 = getelementptr inbounds nuw %struct.oidvector, ptr %44, i32 0, i32 6
  %46 = load i32, ptr %6, align 4
  %47 = sext i32 %46 to i64
  %48 = getelementptr inbounds [0 x i32], ptr %45, i64 0, i64 %47
  %49 = load i32, ptr %48, align 4
  %50 = load ptr, ptr %5, align 8
  %51 = getelementptr inbounds nuw %struct.oidvector, ptr %50, i32 0, i32 6
  %52 = load i32, ptr %6, align 4
  %53 = sext i32 %52 to i64
  %54 = getelementptr inbounds [0 x i32], ptr %51, i64 0, i64 %53
  %55 = load i32, ptr %54, align 4
  %56 = icmp ne i32 %49, %55
  br i1 %56, label %57, label %75

57:                                               ; preds = %43
  %58 = load ptr, ptr %4, align 8
  %59 = getelementptr inbounds nuw %struct.oidvector, ptr %58, i32 0, i32 6
  %60 = load i32, ptr %6, align 4
  %61 = sext i32 %60 to i64
  %62 = getelementptr inbounds [0 x i32], ptr %59, i64 0, i64 %61
  %63 = load i32, ptr %62, align 4
  %64 = load ptr, ptr %5, align 8
  %65 = getelementptr inbounds nuw %struct.oidvector, ptr %64, i32 0, i32 6
  %66 = load i32, ptr %6, align 4
  %67 = sext i32 %66 to i64
  %68 = getelementptr inbounds [0 x i32], ptr %65, i64 0, i64 %67
  %69 = load i32, ptr %68, align 4
  %70 = icmp ugt i32 %63, %69
  br i1 %70, label %71, label %73

71:                                               ; preds = %57
  %72 = call i64 @Int32GetDatum(i32 noundef 1)
  store i64 %72, ptr %2, align 8
  store i32 1, ptr %7, align 4
  br label %81

73:                                               ; preds = %57
  %74 = call i64 @Int32GetDatum(i32 noundef -1)
  store i64 %74, ptr %2, align 8
  store i32 1, ptr %7, align 4
  br label %81

75:                                               ; preds = %43
  br label %76

76:                                               ; preds = %75
  %77 = load i32, ptr %6, align 4
  %78 = add i32 %77, 1
  store i32 %78, ptr %6, align 4
  br label %37, !llvm.loop !6

79:                                               ; preds = %37
  %80 = call i64 @Int32GetDatum(i32 noundef 0)
  store i64 %80, ptr %2, align 8
  store i32 1, ptr %7, align 4
  br label %81

81:                                               ; preds = %79, %73, %71, %27
  call void @llvm.lifetime.end.p0(i64 4, ptr %6) #4
  call void @llvm.lifetime.end.p0(i64 8, ptr %5) #4
  call void @llvm.lifetime.end.p0(i64 8, ptr %4) #4
  %82 = load i64, ptr %2, align 8
  ret i64 %82
}