; Function Attrs: nofree norecurse nosync nounwind memory(read, inaccessiblemem: none) uwtable
define dso_local range(i64 -2147483648, 2147483648) i64 @btoidvectorcmp(ptr noundef readonly captures(none) %0) local_unnamed_addr #4 {
  %2 = getelementptr inbounds nuw i8, ptr %0, i64 32
  %3 = load i64, ptr %2, align 8
  %4 = inttoptr i64 %3 to ptr
  %5 = getelementptr inbounds nuw i8, ptr %0, i64 48
  %6 = load i64, ptr %5, align 8
  %7 = inttoptr i64 %6 to ptr
  %8 = getelementptr inbounds nuw i8, ptr %4, i64 16
  %9 = load i32, ptr %8, align 4
  %10 = getelementptr inbounds nuw i8, ptr %7, i64 16
  %11 = load i32, ptr %10, align 4
  %.not = icmp eq i32 %9, %11
  br i1 %.not, label %.preheader, label %15

.preheader:                                       ; preds = %1
  %12 = icmp sgt i32 %9, 0
  br i1 %12, label %.lr.ph, label %.loopexit

.lr.ph:                                           ; preds = %.preheader
  %13 = getelementptr inbounds nuw i8, ptr %4, i64 24
  %14 = getelementptr inbounds nuw i8, ptr %7, i64 24
  %wide.trip.count = zext nneg i32 %9 to i64
  br label %19

15:                                               ; preds = %1
  %16 = sub i32 %9, %11
  %17 = sext i32 %16 to i64
  br label %.loopexit

18:                                               ; preds = %19
  %indvars.iv.next = add nuw nsw i64 %indvars.iv, 1
  %exitcond.not = icmp eq i64 %indvars.iv.next, %wide.trip.count
  br i1 %exitcond.not, label %.loopexit, label %19, !llvm.loop !4

19:                                               ; preds = %.lr.ph, %18
  %indvars.iv = phi i64 [ 0, %.lr.ph ], [ %indvars.iv.next, %18 ]
  %20 = getelementptr inbounds nuw [0 x i32], ptr %13, i64 0, i64 %indvars.iv
  %21 = load i32, ptr %20, align 4
  %22 = getelementptr inbounds nuw [0 x i32], ptr %14, i64 0, i64 %indvars.iv
  %23 = load i32, ptr %22, align 4
  %.not22 = icmp eq i32 %21, %23
  br i1 %.not22, label %18, label %24

24:                                               ; preds = %19
  %25 = icmp ugt i32 %21, %23
  %spec.select = select i1 %25, i64 1, i64 -1
  br label %.loopexit

.loopexit:                                        ; preds = %18, %.preheader, %24, %15
  %.017 = phi i64 [ %17, %15 ], [ %spec.select, %24 ], [ 0, %.preheader ], [ 0, %18 ]
  ret i64 %.017
}